; Listing generated by Microsoft (R) Optimizing Compiler Version 19.10.25017.0 

; Generated by VC++ for Common Language Runtime
.file "C:\Users\EPS\Documents\Visual Studio 2017\Projects\EjerciciosEnsamblador\Ejemplo2\Form1.cpp"
.global	
.global	?components@Form1@Ejemplo2@@3P$AAVContainer@ComponentModel@System@@$AA ; Ejemplo2::Form1::components
	.bss
.local	,4
.local	?components@Form1@Ejemplo2@@3P$AAVContainer@ComponentModel@System@@$AA,4 ; Ejemplo2::Form1::components
.local	$T1,0
; Function compile flags: /Odtp
; File c:\users\eps\documents\visual studio 2017\projects\ejerciciosensamblador\ejemplo2\form1.h
	.text
	.comdat	any, ??1Form1@Ejemplo2@@$$FA$AAM@XZ
.global	??1Form1@Ejemplo2@@$$FA$AAM@XZ			; Ejemplo2::Form1::~Form1
??1Form1@Ejemplo2@@$$FA$AAM@XZ:				; Ejemplo2::Form1::~Form1
;	.proc.def	D:V()

; Function Header:
; max stack depth = 1
; function size = 31 bytes
; local varsig tk = 0x11000002 
; Exception Information:
; 0 handlers, each consisting of filtered handlers

;	.formal.mptr 0,"_this$" SIG: Optional C Binding Modifier(token:0x15FCE79).class (token:0x15FCE7B)
;	.local.mptr 0,"$T2" SIG: class (token:0x15FCFF1)

;	.proc.beg

; 35   : 				if (components)

	ldarg.0				; _this$
	ldfld		?components@Form1@Ejemplo2@@3P$AAVContainer@ComponentModel@System@@$AA
	brfalse.s	$LN1@Form1

; 36   : 				{
; 37   : 					delete components;

	ldarg.0				; _this$
	ldfld		?components@Form1@Ejemplo2@@3P$AAVContainer@ComponentModel@System@@$AA
	stloc.0				; $T2
	ldloc.0				; $T2
	brfalse.s	$LN4@Form1
	ldloc.0				; $T2
	callvirt	?<Dispose>@IDisposable@System@@$$FU$AAMXXZ
	ldc.i.0		0		; i32 0x0
	stloc.1				
	br.s		$LN1@Form1
$LN4@Form1:
	ldc.i.0		0		; i32 0x0
	stloc.1				
$LN1@Form1:

; 38   : 				}
; 39   : 			}

	ret		
 .end ??1Form1@Ejemplo2@@$$FA$AAM@XZ			; Ejemplo2::Form1::~Form1
;	.proc.end.void
.global	
.global	
.global	
.global	?textBox1@Form1@Ejemplo2@@3P$AAVTextBox@Forms@Windows@System@@$AA ; Ejemplo2::Form1::textBox1
.global	?textBox2@Form1@Ejemplo2@@3P$AAVTextBox@Forms@Windows@System@@$AA ; Ejemplo2::Form1::textBox2
.global	?textBox3@Form1@Ejemplo2@@3P$AAVTextBox@Forms@Windows@System@@$AA ; Ejemplo2::Form1::textBox3
.global	?textBox4@Form1@Ejemplo2@@3P$AAVTextBox@Forms@Windows@System@@$AA ; Ejemplo2::Form1::textBox4
	.bss
.local	,4
.local	,4
.local	,4
.local	?textBox1@Form1@Ejemplo2@@3P$AAVTextBox@Forms@Windows@System@@$AA,4 ; Ejemplo2::Form1::textBox1
.local	?textBox2@Form1@Ejemplo2@@3P$AAVTextBox@Forms@Windows@System@@$AA,4 ; Ejemplo2::Form1::textBox2
.local	?textBox3@Form1@Ejemplo2@@3P$AAVTextBox@Forms@Windows@System@@$AA,4 ; Ejemplo2::Form1::textBox3
.local	?textBox4@Form1@Ejemplo2@@3P$AAVTextBox@Forms@Windows@System@@$AA,4 ; Ejemplo2::Form1::textBox4
.local	$T1,0
; Function compile flags: /Odtp
; File c:\users\eps\documents\visual studio 2017\projects\ejerciciosensamblador\ejemplo2\form1.h
	.text
	.comdat	any, ?button1_Click@Form1@Ejemplo2@@$$FA$AAMXP$AAVObject@System@@P$AAVEventArgs@4@@Z
.global	?button1_Click@Form1@Ejemplo2@@$$FA$AAMXP$AAVObject@System@@P$AAVEventArgs@4@@Z ; Ejemplo2::Form1::button1_Click
?button1_Click@Form1@Ejemplo2@@$$FA$AAMXP$AAVObject@System@@P$AAVEventArgs@4@@Z: ; Ejemplo2::Form1::button1_Click
;	.proc.def	D:V(PP)

; Function Header:
; max stack depth = 4
; function size = 88 bytes
; local varsig tk = 0x11000006 
; Exception Information:
; 0 handlers, each consisting of filtered handlers

;	.formal.mptr 0,"_this$" SIG: Optional C Binding Modifier(token:0x15FCE79).class (token:0x15FCE7B)
;	.local.i4 1,"_a$" SIG: i4
;	.local.i4 0,"_b$" SIG: i4
;	.local.i4 3,"_c$" SIG: i4
;	.local.i4 2,"_r$" SIG: i4

;	.proc.beg

; 188  : 			int a = 0;

	ldc.i.0		0		; i32 0x0
	stloc.1				; _a$

; 189  : 			int b = 0;

	ldc.i.0		0		; i32 0x0
	stloc.0				; _b$

; 190  : 			int c = 0;

	ldc.i.0		0		; i32 0x0
	stloc.3				; _c$

; 191  : 			int r = 0;

	ldc.i.0		0		; i32 0x0
	stloc.2				; _r$

; 192  : 			a = Convert::ToInt32(this->textBox1->Text);

	ldarg.0				; _this$
	ldfld		?textBox1@Form1@Ejemplo2@@3P$AAVTextBox@Forms@Windows@System@@$AA
	callvirt	?get@Text@TextBox@Forms@Windows@System@@$$FU$AAMP$AAVString@5@XZ
	call		?ToInt32@Convert@System@@$$FSMHP$AAVString@2@@Z
	stloc.1				; _a$

; 193  : 			b = Convert::ToInt32(this->textBox2->Text);

	ldarg.0				; _this$
	ldfld		?textBox2@Form1@Ejemplo2@@3P$AAVTextBox@Forms@Windows@System@@$AA
	callvirt	?get@Text@TextBox@Forms@Windows@System@@$$FU$AAMP$AAVString@5@XZ
	call		?ToInt32@Convert@System@@$$FSMHP$AAVString@2@@Z
	stloc.0				; _b$

; 194  : 			division_entera(a, b, &c, &r);

	ldloc.1				; _a$
	ldloc.0				; _b$
	ldloca.s	3		; _c$
	ldloca.s	2		; _r$
	call		?division_entera@@$$FYAXHHPAH0@Z

; 195  : 			this->textBox3->Text = Convert::ToString(c);

	ldarg.0				; _this$
	ldfld		?textBox3@Form1@Ejemplo2@@3P$AAVTextBox@Forms@Windows@System@@$AA
	ldloc.3				; _c$
	call		?ToString@Convert@System@@$$FSMP$AAVString@2@H@Z
	callvirt	?set@Text@TextBox@Forms@Windows@System@@$$FU$AAMXP$AAVString@5@@Z

; 196  : 			this->textBox4->Text = Convert::ToString(r);

	ldarg.0				; _this$
	ldfld		?textBox4@Form1@Ejemplo2@@3P$AAVTextBox@Forms@Windows@System@@$AA
	ldloc.2				; _r$
	call		?ToString@Convert@System@@$$FSMP$AAVString@2@H@Z
	callvirt	?set@Text@TextBox@Forms@Windows@System@@$$FU$AAMXP$AAVString@5@@Z

; 197  : 		}

	ret		
 .end ?button1_Click@Form1@Ejemplo2@@$$FA$AAMXP$AAVObject@System@@P$AAVEventArgs@4@@Z ; Ejemplo2::Form1::button1_Click
;	.proc.end.void
; Function compile flags: /Odtp
	.text
	.comdat	any, ?<Dispose>@Form1@Ejemplo2@@$$FM$AAMX_N@Z
.global	?<Dispose>@Form1@Ejemplo2@@$$FM$AAMX_N@Z	; Ejemplo2::Form1::<Dispose>
?<Dispose>@Form1@Ejemplo2@@$$FM$AAMX_N@Z:		; Ejemplo2::Form1::<Dispose>
;	.proc.def	D:V(I)

; Function Header:
; max stack depth = 2
; function size = 29 bytes
; local varsig tk = 0x0 
; Exception Information:
; 1 handlers, each consisting of filtered handlers

;	.formal.mptr 0,"_this$" SIG: Optional C Binding Modifier(token:0x15FCE79).class (token:0x15FCE7B)
;	.formal.u1 1,"_disposing$" SIG: bool

;	.proc.beg
	ldarg.1				; _disposing$
	brfalse.s	$LN2@
$LN13@:
	ldarg.0				; _this$
	call		??1Form1@Ejemplo2@@$$FA$AAM@XZ
$LN8@:
	leave.s		$LN12@
$LN7@:
	ldarg.0				; _this$
	ldc.i.1		1		; u8 0x1
	call		?<Dispose>@Form@Forms@Windows@System@@$$FM$AAMX_N@Z
$LN9@:
	endfinally	
$LN12@:
	br.s		$LN6@
$LN2@:
	ldarg.0				; _this$
	ldc.i.0		0		; u8 0x0
	call		?<Dispose>@Form@Forms@Windows@System@@$$FM$AAMX_N@Z
$LN6@:
	ret		
 .end ?<Dispose>@Form1@Ejemplo2@@$$FM$AAMX_N@Z		; Ejemplo2::Form1::<Dispose>
;	.proc.end.void
PUBLIC	?division_entera@@YAXHHPAH0@Z			; division_entera
; Function compile flags: /Odtp
; File c:\users\eps\documents\visual studio 2017\projects\ejerciciosensamblador\ejemplo2\form1.h
;	COMDAT ?division_entera@@YAXHHPAH0@Z
_TEXT	SEGMENT
_lresto$ = -8						; size = 4
_lcociente$ = -4					; size = 4
_dividendo$ = 8						; size = 4
_divisor$ = 12						; size = 4
_cociente$ = 16						; size = 4
_resto$ = 20						; size = 4
?division_entera@@YAXHHPAH0@Z PROC			; division_entera

; 202  : {

	push	ebp
	mov	ebp, esp
	sub	esp, 8
	push	ebx

; 203  : 	int lcociente = 0;

	mov	DWORD PTR _lcociente$[ebp], 0

; 204  : 	int lresto = 0;

	mov	DWORD PTR _lresto$[ebp], 0

; 205  : 	__asm
; 206  : 	{
; 207  : 		mov ebx, dividendo; Almacena en EBX el dividendo

	mov	ebx, DWORD PTR _dividendo$[ebp]

; 208  : 		mov ecx, divisor; Almacena en ECX el divisor

	mov	ecx, DWORD PTR _divisor$[ebp]

; 209  : 		mov edx, lcociente; Inicializa EDX a cero

	mov	edx, DWORD PTR _lcociente$[ebp]

; 210  : 		mov eax, ebx; Inicializa EAX con el dividendo

	mov	eax, ebx
$bucle$3:

; 211  : 		bucle :
; 212  : 		cmp eax, ecx; Si resto < divisor, finaliza el bucle

	cmp	eax, ecx

; 213  : 			js fin

	js	SHORT $fin$4

; 214  : 			inc edx; Incrementa el cociente

	inc	edx

; 215  : 			sub eax, ecx; resto = restoanterior - divisor

	sub	eax, ecx

; 216  : 			jmp bucle

	jmp	SHORT $bucle$3
$fin$4:

; 217  : 			fin :
; 218  : 		mov lcociente, edx

	mov	DWORD PTR _lcociente$[ebp], edx

; 219  : 			mov lresto, eax

	mov	DWORD PTR _lresto$[ebp], eax

; 220  : 	}
; 221  : 	*cociente = lcociente;

	mov	eax, DWORD PTR _cociente$[ebp]
	mov	ecx, DWORD PTR _lcociente$[ebp]
	mov	DWORD PTR [eax], ecx

; 222  : 	*resto = lresto;

	mov	edx, DWORD PTR _resto$[ebp]
	mov	eax, DWORD PTR _lresto$[ebp]
	mov	DWORD PTR [edx], eax

; 223  : }

	pop	ebx
	mov	esp, ebp
	pop	ebp
	ret	0
?division_entera@@YAXHHPAH0@Z ENDP			; division_entera
_TEXT	ENDS
.global	?label1@Form1@Ejemplo2@@3P$AAVLabel@Forms@Windows@System@@$AA ; Ejemplo2::Form1::label1
.global	?label2@Form1@Ejemplo2@@3P$AAVLabel@Forms@Windows@System@@$AA ; Ejemplo2::Form1::label2
.global	?label3@Form1@Ejemplo2@@3P$AAVLabel@Forms@Windows@System@@$AA ; Ejemplo2::Form1::label3
.global	?label4@Form1@Ejemplo2@@3P$AAVLabel@Forms@Windows@System@@$AA ; Ejemplo2::Form1::label4
.global	?label5@Form1@Ejemplo2@@3P$AAVLabel@Forms@Windows@System@@$AA ; Ejemplo2::Form1::label5
.global	?button1@Form1@Ejemplo2@@3P$AAVButton@Forms@Windows@System@@$AA ; Ejemplo2::Form1::button1
	.bss
.local	?label1@Form1@Ejemplo2@@3P$AAVLabel@Forms@Windows@System@@$AA,4 ; Ejemplo2::Form1::label1
.local	?label2@Form1@Ejemplo2@@3P$AAVLabel@Forms@Windows@System@@$AA,4 ; Ejemplo2::Form1::label2
.local	?label3@Form1@Ejemplo2@@3P$AAVLabel@Forms@Windows@System@@$AA,4 ; Ejemplo2::Form1::label3
.local	?label4@Form1@Ejemplo2@@3P$AAVLabel@Forms@Windows@System@@$AA,4 ; Ejemplo2::Form1::label4
.local	?label5@Form1@Ejemplo2@@3P$AAVLabel@Forms@Windows@System@@$AA,4 ; Ejemplo2::Form1::label5
.local	?button1@Form1@Ejemplo2@@3P$AAVButton@Forms@Windows@System@@$AA,4 ; Ejemplo2::Form1::button1
.local	$StringLiteralTok$??_C@_1O@EBCDJCCM@?$AAl?$AAa?$AAb?$AAe?$AAl?$AA1?$AA?$AA@,4
.local	$StringLiteralTok$??_C@_1BE@BDFANFMH@?$AAD?$AAi?$AAv?$AAi?$AAd?$AAe?$AAn?$AAd?$AAo?$AA?$AA@,4
.local	$StringLiteralTok$??_C@_1O@FDJGDNMC@?$AAl?$AAa?$AAb?$AAe?$AAl?$AA2?$AA?$AA@,4
.local	$StringLiteralTok$??_C@_1BA@DHEODGPL@?$AAD?$AAi?$AAv?$AAi?$AAs?$AAo?$AAr?$AA?$AA@,4
.local	$StringLiteralTok$??_C@_1O@OLCKFKKH@?$AAl?$AAa?$AAb?$AAe?$AAl?$AA3?$AA?$AA@,4
.local	$StringLiteralTok$??_C@_1BC@FEOHLODN@?$AAC?$AAo?$AAc?$AAi?$AAe?$AAn?$AAt?$AAe?$AA?$AA@,4
.local	$StringLiteralTok$??_C@_1O@HGPNGCBO@?$AAl?$AAa?$AAb?$AAe?$AAl?$AA4?$AA?$AA@,4
.local	$StringLiteralTok$??_C@_1M@LCINAMMG@?$AAR?$AAe?$AAs?$AAt?$AAo?$AA?$AA@,4
.local	$StringLiteralTok$??_C@_1BC@NLCEEBHH@?$AAt?$AAe?$AAx?$AAt?$AAB?$AAo?$AAx?$AA1?$AA?$AA@,4
.local	$StringLiteralTok$??_C@_1BC@MJJBOOJJ@?$AAt?$AAe?$AAx?$AAt?$AAB?$AAo?$AAx?$AA2?$AA?$AA@,4
.local	$StringLiteralTok$??_C@_1BC@HBCNIJPM@?$AAt?$AAe?$AAx?$AAt?$AAB?$AAo?$AAx?$AA3?$AA?$AA@,4
.local	$StringLiteralTok$??_C@_1BC@OMPKLBEF@?$AAt?$AAe?$AAx?$AAt?$AAB?$AAo?$AAx?$AA4?$AA?$AA@,4
.local	$StringLiteralTok$??_C@_1CK@MHIILAEE@?$AAM?$AAi?$AAc?$AAr?$AAo?$AAs?$AAo?$AAf?$AAt?$AA?5?$AAS?$AAa?$AAn?$AAs?$AA?5?$AAS?$AAe?$AAr?$AAi?$AAf?$AA?$AA@,4
.local	$StringLiteralTok$??_C@_1O@MOEBAFHL@?$AAl?$AAa?$AAb?$AAe?$AAl?$AA5?$AA?$AA@,4
.local	$StringLiteralTok$??_C@_1DO@CCFGBNLA@?$AAD?$AAI?$AAV?$AAI?$AAS?$AAI?$AA?S?$AAN?$AA?5?$AAE?$AAN?$AAT?$AAE?$AAR?$AAA?$AA?5?$AAD?$AAE?$AA?5?$AAD?$AAO?$AAS?$AA?5?$AAN?$AA?Z?$AAM?$AAE?$AAR?$AAO?$AAS?$AA?$AA@,4
.local	$StringLiteralTok$??_C@_1BA@GICFBNPG@?$AAb?$AAu?$AAt?$AAt?$AAo?$AAn?$AA1?$AA?$AA@,4
.local	$StringLiteralTok$??_C@_1BC@DDJIGOJK@?$AAC?$AAa?$AAl?$AAc?$AAu?$AAl?$AAa?$AAr?$AA?$AA@,4
.local	$StringLiteralTok$??_C@_1M@GJBAGBNA@?$AAF?$AAo?$AAr?$AAm?$AA1?$AA?$AA@,4
.local	$T1,0
; Function compile flags: /Odtp
; File c:\users\eps\documents\visual studio 2017\projects\ejerciciosensamblador\ejemplo2\form1.h
	.text
	.comdat	any, ?InitializeComponent@Form1@Ejemplo2@@$$FA$AAMXXZ
.global	?InitializeComponent@Form1@Ejemplo2@@$$FA$AAMXXZ ; Ejemplo2::Form1::InitializeComponent
?InitializeComponent@Form1@Ejemplo2@@$$FA$AAMXXZ:	; Ejemplo2::Form1::InitializeComponent
;	.proc.def	D:V()

; Function Header:
; max stack depth = 6
; function size = 1371 bytes
; local varsig tk = 0x11000007 
; Exception Information:
; 0 handlers, each consisting of filtered handlers

;	.formal.mptr 0,"_this$" SIG: Optional C Binding Modifier(token:0x15FCE79).class (token:0x15FCE7B)
;	.local.mb8   21,"$T2" SIG: valueType (token:0x15FDA29)
;	.local.mb8   20,"$T3" SIG: valueType (token:0x15FCCD1)
;	.local.mb8   19,"$T4" SIG: valueType (token:0x15FDA29)
;	.local.mb8   18,"$T5" SIG: valueType (token:0x15FCCD1)
;	.local.mb8   17,"$T6" SIG: valueType (token:0x15FDA29)
;	.local.mb8   16,"$T7" SIG: valueType (token:0x15FCCD1)
;	.local.mb8   15,"$T8" SIG: valueType (token:0x15FDA29)
;	.local.mb8   14,"$T9" SIG: valueType (token:0x15FCCD1)
;	.local.mb8   13,"$T10" SIG: valueType (token:0x15FDA29)
;	.local.mb8   12,"$T11" SIG: valueType (token:0x15FCCD1)
;	.local.mb8   11,"$T12" SIG: valueType (token:0x15FDA29)
;	.local.mb8   10,"$T13" SIG: valueType (token:0x15FCCD1)
;	.local.mb8   9,"$T14" SIG: valueType (token:0x15FDA29)
;	.local.mb8   8,"$T15" SIG: valueType (token:0x15FCCD1)
;	.local.mb8   7,"$T16" SIG: valueType (token:0x15FDA29)
;	.local.mb8   6,"$T17" SIG: valueType (token:0x15FCCD1)
;	.local.mb8   5,"$T18" SIG: valueType (token:0x15FDA29)
;	.local.mb8   4,"$T19" SIG: valueType (token:0x15FCCD1)
;	.local.mb8   3,"$T20" SIG: valueType (token:0x15FDA29)
;	.local.mb8   2,"$T21" SIG: valueType (token:0x15FCCD1)
;	.local.mb8   1,"$T22" SIG: valueType (token:0x15FE631)
;	.local.mb8   0,"$T23" SIG: valueType (token:0x15FCCD1)

;	.proc.beg

; 65   : 				this->label1 = (gcnew System::Windows::Forms::Label());

	ldarg.0				; _this$
	newobj		??0Label@Forms@Windows@System@@$$FQ$AAM@XZ
	stfld		?label1@Form1@Ejemplo2@@3P$AAVLabel@Forms@Windows@System@@$AA

; 66   : 				this->label2 = (gcnew System::Windows::Forms::Label());

	ldarg.0				; _this$
	newobj		??0Label@Forms@Windows@System@@$$FQ$AAM@XZ
	stfld		?label2@Form1@Ejemplo2@@3P$AAVLabel@Forms@Windows@System@@$AA

; 67   : 				this->label3 = (gcnew System::Windows::Forms::Label());

	ldarg.0				; _this$
	newobj		??0Label@Forms@Windows@System@@$$FQ$AAM@XZ
	stfld		?label3@Form1@Ejemplo2@@3P$AAVLabel@Forms@Windows@System@@$AA

; 68   : 				this->label4 = (gcnew System::Windows::Forms::Label());

	ldarg.0				; _this$
	newobj		??0Label@Forms@Windows@System@@$$FQ$AAM@XZ
	stfld		?label4@Form1@Ejemplo2@@3P$AAVLabel@Forms@Windows@System@@$AA

; 69   : 				this->textBox1 = (gcnew System::Windows::Forms::TextBox());

	ldarg.0				; _this$
	newobj		??0TextBox@Forms@Windows@System@@$$FQ$AAM@XZ
	stfld		?textBox1@Form1@Ejemplo2@@3P$AAVTextBox@Forms@Windows@System@@$AA

; 70   : 				this->textBox2 = (gcnew System::Windows::Forms::TextBox());

	ldarg.0				; _this$
	newobj		??0TextBox@Forms@Windows@System@@$$FQ$AAM@XZ
	stfld		?textBox2@Form1@Ejemplo2@@3P$AAVTextBox@Forms@Windows@System@@$AA

; 71   : 				this->textBox3 = (gcnew System::Windows::Forms::TextBox());

	ldarg.0				; _this$
	newobj		??0TextBox@Forms@Windows@System@@$$FQ$AAM@XZ
	stfld		?textBox3@Form1@Ejemplo2@@3P$AAVTextBox@Forms@Windows@System@@$AA

; 72   : 				this->textBox4 = (gcnew System::Windows::Forms::TextBox());

	ldarg.0				; _this$
	newobj		??0TextBox@Forms@Windows@System@@$$FQ$AAM@XZ
	stfld		?textBox4@Form1@Ejemplo2@@3P$AAVTextBox@Forms@Windows@System@@$AA

; 73   : 				this->label5 = (gcnew System::Windows::Forms::Label());

	ldarg.0				; _this$
	newobj		??0Label@Forms@Windows@System@@$$FQ$AAM@XZ
	stfld		?label5@Form1@Ejemplo2@@3P$AAVLabel@Forms@Windows@System@@$AA

; 74   : 				this->button1 = (gcnew System::Windows::Forms::Button());

	ldarg.0				; _this$
	newobj		??0Button@Forms@Windows@System@@$$FQ$AAM@XZ
	stfld		?button1@Form1@Ejemplo2@@3P$AAVButton@Forms@Windows@System@@$AA

; 75   : 				this->SuspendLayout();

	ldarg.0				; _this$
	call		?SuspendLayout@Control@Forms@Windows@System@@$$FQ$AAMXXZ

; 76   : 				// 
; 77   : 				// label1
; 78   : 				// 
; 79   : 				this->label1->AutoSize = true;

	ldarg.0				; _this$
	ldfld		?label1@Form1@Ejemplo2@@3P$AAVLabel@Forms@Windows@System@@$AA
	ldc.i.1		1		; u8 0x1
	callvirt	?set@AutoSize@Label@Forms@Windows@System@@$$FU$AAMX_N@Z

; 80   : 				this->label1->Location = System::Drawing::Point(47, 61);

	ldloca.s	21		; $T2
	ldc.i4.s	47		; i32 0x2f
	ldc.i4.s	61		; i32 0x3d
	call		??0Point@Drawing@System@@$$FQ$CAM@HH@Z
	ldarg.0				; _this$
	ldfld		?label1@Form1@Ejemplo2@@3P$AAVLabel@Forms@Windows@System@@$AA
	ldloc.s		21		; $T2
	call		?set@Location@Control@Forms@Windows@System@@$$FQ$AAMXVPoint@Drawing@5@@Z

; 81   : 				this->label1->Name = L"label1";

	ldarg.0				; _this$
	ldfld		?label1@Form1@Ejemplo2@@3P$AAVLabel@Forms@Windows@System@@$AA
	ldstr		$StringLiteralTok$??_C@_1O@EBCDJCCM@?$AAl?$AAa?$AAb?$AAe?$AAl?$AA1?$AA?$AA@
	call		?set@Name@Control@Forms@Windows@System@@$$FQ$AAMXP$AAVString@5@@Z

; 82   : 				this->label1->Size = System::Drawing::Size(55, 13);

	ldloca.s	20		; $T3
	ldc.i4.s	55		; i32 0x37
	ldc.i4.s	13		; i32 0xd
	call		??0Size@Drawing@System@@$$FQ$CAM@HH@Z
	ldarg.0				; _this$
	ldfld		?label1@Form1@Ejemplo2@@3P$AAVLabel@Forms@Windows@System@@$AA
	ldloc.s		20		; $T3
	call		?set@Size@Control@Forms@Windows@System@@$$FQ$AAMXV1Drawing@5@@Z

; 83   : 				this->label1->TabIndex = 0;

	ldarg.0				; _this$
	ldfld		?label1@Form1@Ejemplo2@@3P$AAVLabel@Forms@Windows@System@@$AA
	ldc.i.0		0		; i32 0x0
	call		?set@TabIndex@Control@Forms@Windows@System@@$$FQ$AAMXH@Z

; 84   : 				this->label1->Text = L"Dividendo";

	ldarg.0				; _this$
	ldfld		?label1@Form1@Ejemplo2@@3P$AAVLabel@Forms@Windows@System@@$AA
	ldstr		$StringLiteralTok$??_C@_1BE@BDFANFMH@?$AAD?$AAi?$AAv?$AAi?$AAd?$AAe?$AAn?$AAd?$AAo?$AA?$AA@
	callvirt	?set@Text@Label@Forms@Windows@System@@$$FU$AAMXP$AAVString@5@@Z

; 85   : 				// 
; 86   : 				// label2
; 87   : 				// 
; 88   : 				this->label2->AutoSize = true;

	ldarg.0				; _this$
	ldfld		?label2@Form1@Ejemplo2@@3P$AAVLabel@Forms@Windows@System@@$AA
	ldc.i.1		1		; u8 0x1
	callvirt	?set@AutoSize@Label@Forms@Windows@System@@$$FU$AAMX_N@Z

; 89   : 				this->label2->Location = System::Drawing::Point(47, 90);

	ldloca.s	19		; $T4
	ldc.i4.s	47		; i32 0x2f
	ldc.i4.s	90		; i32 0x5a
	call		??0Point@Drawing@System@@$$FQ$CAM@HH@Z
	ldarg.0				; _this$
	ldfld		?label2@Form1@Ejemplo2@@3P$AAVLabel@Forms@Windows@System@@$AA
	ldloc.s		19		; $T4
	call		?set@Location@Control@Forms@Windows@System@@$$FQ$AAMXVPoint@Drawing@5@@Z

; 90   : 				this->label2->Name = L"label2";

	ldarg.0				; _this$
	ldfld		?label2@Form1@Ejemplo2@@3P$AAVLabel@Forms@Windows@System@@$AA
	ldstr		$StringLiteralTok$??_C@_1O@FDJGDNMC@?$AAl?$AAa?$AAb?$AAe?$AAl?$AA2?$AA?$AA@
	call		?set@Name@Control@Forms@Windows@System@@$$FQ$AAMXP$AAVString@5@@Z

; 91   : 				this->label2->Size = System::Drawing::Size(39, 13);

	ldloca.s	18		; $T5
	ldc.i4.s	39		; i32 0x27
	ldc.i4.s	13		; i32 0xd
	call		??0Size@Drawing@System@@$$FQ$CAM@HH@Z
	ldarg.0				; _this$
	ldfld		?label2@Form1@Ejemplo2@@3P$AAVLabel@Forms@Windows@System@@$AA
	ldloc.s		18		; $T5
	call		?set@Size@Control@Forms@Windows@System@@$$FQ$AAMXV1Drawing@5@@Z

; 92   : 				this->label2->TabIndex = 1;

	ldarg.0				; _this$
	ldfld		?label2@Form1@Ejemplo2@@3P$AAVLabel@Forms@Windows@System@@$AA
	ldc.i.1		1		; i32 0x1
	call		?set@TabIndex@Control@Forms@Windows@System@@$$FQ$AAMXH@Z

; 93   : 				this->label2->Text = L"Divisor";

	ldarg.0				; _this$
	ldfld		?label2@Form1@Ejemplo2@@3P$AAVLabel@Forms@Windows@System@@$AA
	ldstr		$StringLiteralTok$??_C@_1BA@DHEODGPL@?$AAD?$AAi?$AAv?$AAi?$AAs?$AAo?$AAr?$AA?$AA@
	callvirt	?set@Text@Label@Forms@Windows@System@@$$FU$AAMXP$AAVString@5@@Z

; 94   : 				// 
; 95   : 				// label3
; 96   : 				// 
; 97   : 				this->label3->AutoSize = true;

	ldarg.0				; _this$
	ldfld		?label3@Form1@Ejemplo2@@3P$AAVLabel@Forms@Windows@System@@$AA
	ldc.i.1		1		; u8 0x1
	callvirt	?set@AutoSize@Label@Forms@Windows@System@@$$FU$AAMX_N@Z

; 98   : 				this->label3->Location = System::Drawing::Point(47, 167);

	ldloca.s	17		; $T6
	ldc.i4.s	47		; i32 0x2f
	ldc.i4		167		; i32 0xa7
	call		??0Point@Drawing@System@@$$FQ$CAM@HH@Z
	ldarg.0				; _this$
	ldfld		?label3@Form1@Ejemplo2@@3P$AAVLabel@Forms@Windows@System@@$AA
	ldloc.s		17		; $T6
	call		?set@Location@Control@Forms@Windows@System@@$$FQ$AAMXVPoint@Drawing@5@@Z

; 99   : 				this->label3->Name = L"label3";

	ldarg.0				; _this$
	ldfld		?label3@Form1@Ejemplo2@@3P$AAVLabel@Forms@Windows@System@@$AA
	ldstr		$StringLiteralTok$??_C@_1O@OLCKFKKH@?$AAl?$AAa?$AAb?$AAe?$AAl?$AA3?$AA?$AA@
	call		?set@Name@Control@Forms@Windows@System@@$$FQ$AAMXP$AAVString@5@@Z

; 100  : 				this->label3->Size = System::Drawing::Size(49, 13);

	ldloca.s	16		; $T7
	ldc.i4.s	49		; i32 0x31
	ldc.i4.s	13		; i32 0xd
	call		??0Size@Drawing@System@@$$FQ$CAM@HH@Z
	ldarg.0				; _this$
	ldfld		?label3@Form1@Ejemplo2@@3P$AAVLabel@Forms@Windows@System@@$AA
	ldloc.s		16		; $T7
	call		?set@Size@Control@Forms@Windows@System@@$$FQ$AAMXV1Drawing@5@@Z

; 101  : 				this->label3->TabIndex = 2;

	ldarg.0				; _this$
	ldfld		?label3@Form1@Ejemplo2@@3P$AAVLabel@Forms@Windows@System@@$AA
	ldc.i.2		2		; i32 0x2
	call		?set@TabIndex@Control@Forms@Windows@System@@$$FQ$AAMXH@Z

; 102  : 				this->label3->Text = L"Cociente";

	ldarg.0				; _this$
	ldfld		?label3@Form1@Ejemplo2@@3P$AAVLabel@Forms@Windows@System@@$AA
	ldstr		$StringLiteralTok$??_C@_1BC@FEOHLODN@?$AAC?$AAo?$AAc?$AAi?$AAe?$AAn?$AAt?$AAe?$AA?$AA@
	callvirt	?set@Text@Label@Forms@Windows@System@@$$FU$AAMXP$AAVString@5@@Z

; 103  : 				// 
; 104  : 				// label4
; 105  : 				// 
; 106  : 				this->label4->AutoSize = true;

	ldarg.0				; _this$
	ldfld		?label4@Form1@Ejemplo2@@3P$AAVLabel@Forms@Windows@System@@$AA
	ldc.i.1		1		; u8 0x1
	callvirt	?set@AutoSize@Label@Forms@Windows@System@@$$FU$AAMX_N@Z

; 107  : 				this->label4->Location = System::Drawing::Point(47, 204);

	ldloca.s	15		; $T8
	ldc.i4.s	47		; i32 0x2f
	ldc.i4		204		; i32 0xcc
	call		??0Point@Drawing@System@@$$FQ$CAM@HH@Z
	ldarg.0				; _this$
	ldfld		?label4@Form1@Ejemplo2@@3P$AAVLabel@Forms@Windows@System@@$AA
	ldloc.s		15		; $T8
	call		?set@Location@Control@Forms@Windows@System@@$$FQ$AAMXVPoint@Drawing@5@@Z

; 108  : 				this->label4->Name = L"label4";

	ldarg.0				; _this$
	ldfld		?label4@Form1@Ejemplo2@@3P$AAVLabel@Forms@Windows@System@@$AA
	ldstr		$StringLiteralTok$??_C@_1O@HGPNGCBO@?$AAl?$AAa?$AAb?$AAe?$AAl?$AA4?$AA?$AA@
	call		?set@Name@Control@Forms@Windows@System@@$$FQ$AAMXP$AAVString@5@@Z

; 109  : 				this->label4->Size = System::Drawing::Size(35, 13);

	ldloca.s	14		; $T9
	ldc.i4.s	35		; i32 0x23
	ldc.i4.s	13		; i32 0xd
	call		??0Size@Drawing@System@@$$FQ$CAM@HH@Z
	ldarg.0				; _this$
	ldfld		?label4@Form1@Ejemplo2@@3P$AAVLabel@Forms@Windows@System@@$AA
	ldloc.s		14		; $T9
	call		?set@Size@Control@Forms@Windows@System@@$$FQ$AAMXV1Drawing@5@@Z

; 110  : 				this->label4->TabIndex = 3;

	ldarg.0				; _this$
	ldfld		?label4@Form1@Ejemplo2@@3P$AAVLabel@Forms@Windows@System@@$AA
	ldc.i.3		3		; i32 0x3
	call		?set@TabIndex@Control@Forms@Windows@System@@$$FQ$AAMXH@Z

; 111  : 				this->label4->Text = L"Resto";

	ldarg.0				; _this$
	ldfld		?label4@Form1@Ejemplo2@@3P$AAVLabel@Forms@Windows@System@@$AA
	ldstr		$StringLiteralTok$??_C@_1M@LCINAMMG@?$AAR?$AAe?$AAs?$AAt?$AAo?$AA?$AA@
	callvirt	?set@Text@Label@Forms@Windows@System@@$$FU$AAMXP$AAVString@5@@Z

; 112  : 				// 
; 113  : 				// textBox1
; 114  : 				// 
; 115  : 				this->textBox1->Location = System::Drawing::Point(118, 58);

	ldloca.s	13		; $T10
	ldc.i4.s	118		; i32 0x76
	ldc.i4.s	58		; i32 0x3a
	call		??0Point@Drawing@System@@$$FQ$CAM@HH@Z
	ldarg.0				; _this$
	ldfld		?textBox1@Form1@Ejemplo2@@3P$AAVTextBox@Forms@Windows@System@@$AA
	ldloc.s		13		; $T10
	call		?set@Location@Control@Forms@Windows@System@@$$FQ$AAMXVPoint@Drawing@5@@Z

; 116  : 				this->textBox1->Name = L"textBox1";

	ldarg.0				; _this$
	ldfld		?textBox1@Form1@Ejemplo2@@3P$AAVTextBox@Forms@Windows@System@@$AA
	ldstr		$StringLiteralTok$??_C@_1BC@NLCEEBHH@?$AAt?$AAe?$AAx?$AAt?$AAB?$AAo?$AAx?$AA1?$AA?$AA@
	call		?set@Name@Control@Forms@Windows@System@@$$FQ$AAMXP$AAVString@5@@Z

; 117  : 				this->textBox1->Size = System::Drawing::Size(100, 20);

	ldloca.s	12		; $T11
	ldc.i4.s	100		; i32 0x64
	ldc.i4.s	20		; i32 0x14
	call		??0Size@Drawing@System@@$$FQ$CAM@HH@Z
	ldarg.0				; _this$
	ldfld		?textBox1@Form1@Ejemplo2@@3P$AAVTextBox@Forms@Windows@System@@$AA
	ldloc.s		12		; $T11
	call		?set@Size@Control@Forms@Windows@System@@$$FQ$AAMXV1Drawing@5@@Z

; 118  : 				this->textBox1->TabIndex = 4;

	ldarg.0				; _this$
	ldfld		?textBox1@Form1@Ejemplo2@@3P$AAVTextBox@Forms@Windows@System@@$AA
	ldc.i.4		4		; i32 0x4
	call		?set@TabIndex@Control@Forms@Windows@System@@$$FQ$AAMXH@Z

; 119  : 				// 
; 120  : 				// textBox2
; 121  : 				// 
; 122  : 				this->textBox2->Location = System::Drawing::Point(118, 87);

	ldloca.s	11		; $T12
	ldc.i4.s	118		; i32 0x76
	ldc.i4.s	87		; i32 0x57
	call		??0Point@Drawing@System@@$$FQ$CAM@HH@Z
	ldarg.0				; _this$
	ldfld		?textBox2@Form1@Ejemplo2@@3P$AAVTextBox@Forms@Windows@System@@$AA
	ldloc.s		11		; $T12
	call		?set@Location@Control@Forms@Windows@System@@$$FQ$AAMXVPoint@Drawing@5@@Z

; 123  : 				this->textBox2->Name = L"textBox2";

	ldarg.0				; _this$
	ldfld		?textBox2@Form1@Ejemplo2@@3P$AAVTextBox@Forms@Windows@System@@$AA
	ldstr		$StringLiteralTok$??_C@_1BC@MJJBOOJJ@?$AAt?$AAe?$AAx?$AAt?$AAB?$AAo?$AAx?$AA2?$AA?$AA@
	call		?set@Name@Control@Forms@Windows@System@@$$FQ$AAMXP$AAVString@5@@Z

; 124  : 				this->textBox2->Size = System::Drawing::Size(100, 20);

	ldloca.s	10		; $T13
	ldc.i4.s	100		; i32 0x64
	ldc.i4.s	20		; i32 0x14
	call		??0Size@Drawing@System@@$$FQ$CAM@HH@Z
	ldarg.0				; _this$
	ldfld		?textBox2@Form1@Ejemplo2@@3P$AAVTextBox@Forms@Windows@System@@$AA
	ldloc.s		10		; $T13
	call		?set@Size@Control@Forms@Windows@System@@$$FQ$AAMXV1Drawing@5@@Z

; 125  : 				this->textBox2->TabIndex = 5;

	ldarg.0				; _this$
	ldfld		?textBox2@Form1@Ejemplo2@@3P$AAVTextBox@Forms@Windows@System@@$AA
	ldc.i.5		5		; i32 0x5
	call		?set@TabIndex@Control@Forms@Windows@System@@$$FQ$AAMXH@Z

; 126  : 				// 
; 127  : 				// textBox3
; 128  : 				// 
; 129  : 				this->textBox3->Location = System::Drawing::Point(118, 164);

	ldloca.s	9		; $T14
	ldc.i4.s	118		; i32 0x76
	ldc.i4		164		; i32 0xa4
	call		??0Point@Drawing@System@@$$FQ$CAM@HH@Z
	ldarg.0				; _this$
	ldfld		?textBox3@Form1@Ejemplo2@@3P$AAVTextBox@Forms@Windows@System@@$AA
	ldloc.s		9		; $T14
	call		?set@Location@Control@Forms@Windows@System@@$$FQ$AAMXVPoint@Drawing@5@@Z

; 130  : 				this->textBox3->Name = L"textBox3";

	ldarg.0				; _this$
	ldfld		?textBox3@Form1@Ejemplo2@@3P$AAVTextBox@Forms@Windows@System@@$AA
	ldstr		$StringLiteralTok$??_C@_1BC@HBCNIJPM@?$AAt?$AAe?$AAx?$AAt?$AAB?$AAo?$AAx?$AA3?$AA?$AA@
	call		?set@Name@Control@Forms@Windows@System@@$$FQ$AAMXP$AAVString@5@@Z

; 131  : 				this->textBox3->Size = System::Drawing::Size(100, 20);

	ldloca.s	8		; $T15
	ldc.i4.s	100		; i32 0x64
	ldc.i4.s	20		; i32 0x14
	call		??0Size@Drawing@System@@$$FQ$CAM@HH@Z
	ldarg.0				; _this$
	ldfld		?textBox3@Form1@Ejemplo2@@3P$AAVTextBox@Forms@Windows@System@@$AA
	ldloc.s		8		; $T15
	call		?set@Size@Control@Forms@Windows@System@@$$FQ$AAMXV1Drawing@5@@Z

; 132  : 				this->textBox3->TabIndex = 6;

	ldarg.0				; _this$
	ldfld		?textBox3@Form1@Ejemplo2@@3P$AAVTextBox@Forms@Windows@System@@$AA
	ldc.i.6		6		; i32 0x6
	call		?set@TabIndex@Control@Forms@Windows@System@@$$FQ$AAMXH@Z

; 133  : 				// 
; 134  : 				// textBox4
; 135  : 				// 
; 136  : 				this->textBox4->Location = System::Drawing::Point(118, 201);

	ldloca.s	7		; $T16
	ldc.i4.s	118		; i32 0x76
	ldc.i4		201		; i32 0xc9
	call		??0Point@Drawing@System@@$$FQ$CAM@HH@Z
	ldarg.0				; _this$
	ldfld		?textBox4@Form1@Ejemplo2@@3P$AAVTextBox@Forms@Windows@System@@$AA
	ldloc.s		7		; $T16
	call		?set@Location@Control@Forms@Windows@System@@$$FQ$AAMXVPoint@Drawing@5@@Z

; 137  : 				this->textBox4->Name = L"textBox4";

	ldarg.0				; _this$
	ldfld		?textBox4@Form1@Ejemplo2@@3P$AAVTextBox@Forms@Windows@System@@$AA
	ldstr		$StringLiteralTok$??_C@_1BC@OMPKLBEF@?$AAt?$AAe?$AAx?$AAt?$AAB?$AAo?$AAx?$AA4?$AA?$AA@
	call		?set@Name@Control@Forms@Windows@System@@$$FQ$AAMXP$AAVString@5@@Z

; 138  : 				this->textBox4->Size = System::Drawing::Size(100, 20);

	ldloca.s	6		; $T17
	ldc.i4.s	100		; i32 0x64
	ldc.i4.s	20		; i32 0x14
	call		??0Size@Drawing@System@@$$FQ$CAM@HH@Z
	ldarg.0				; _this$
	ldfld		?textBox4@Form1@Ejemplo2@@3P$AAVTextBox@Forms@Windows@System@@$AA
	ldloc.s		6		; $T17
	call		?set@Size@Control@Forms@Windows@System@@$$FQ$AAMXV1Drawing@5@@Z

; 139  : 				this->textBox4->TabIndex = 7;

	ldarg.0				; _this$
	ldfld		?textBox4@Form1@Ejemplo2@@3P$AAVTextBox@Forms@Windows@System@@$AA
	ldc.i.7		7		; i32 0x7
	call		?set@TabIndex@Control@Forms@Windows@System@@$$FQ$AAMXH@Z

; 140  : 				// 
; 141  : 				// label5
; 142  : 				// 
; 143  : 				this->label5->AutoSize = true;

	ldarg.0				; _this$
	ldfld		?label5@Form1@Ejemplo2@@3P$AAVLabel@Forms@Windows@System@@$AA
	ldc.i.1		1		; u8 0x1
	callvirt	?set@AutoSize@Label@Forms@Windows@System@@$$FU$AAMX_N@Z

; 144  : 				this->label5->Font = (gcnew System::Drawing::Font(L"Microsoft Sans Serif", 8.25F, System::Drawing::FontStyle::Bold, System::Drawing::GraphicsUnit::Point,

	ldarg.0				; _this$
	ldfld		?label5@Form1@Ejemplo2@@3P$AAVLabel@Forms@Windows@System@@$AA
	ldstr		$StringLiteralTok$??_C@_1CK@MHIILAEE@?$AAM?$AAi?$AAc?$AAr?$AAo?$AAs?$AAo?$AAf?$AAt?$AA?5?$AAS?$AAa?$AAn?$AAs?$AA?5?$AAS?$AAe?$AAr?$AAi?$AAf?$AA?$AA@
	ldc.r4		8.250000
	ldc.i.1		1		; i32 0x1
	ldc.i.3		3		; i32 0x3
	ldc.i.0		0		; u8 0x0
	newobj		??0Font@Drawing@System@@$$FQ$AAM@P$AAVString@2@MW4FontStyle@12@W4GraphicsUnit@12@E@Z
	callvirt	?set@Font@Control@Forms@Windows@System@@$$FU$AAMXP$AAV1Drawing@5@@Z

; 145  : 					static_cast<System::Byte>(0)));
; 146  : 				this->label5->Location = System::Drawing::Point(27, 9);

	ldloca.s	5		; $T18
	ldc.i4.s	27		; i32 0x1b
	ldc.i4.s	9		; i32 0x9
	call		??0Point@Drawing@System@@$$FQ$CAM@HH@Z
	ldarg.0				; _this$
	ldfld		?label5@Form1@Ejemplo2@@3P$AAVLabel@Forms@Windows@System@@$AA
	ldloc.s		5		; $T18
	call		?set@Location@Control@Forms@Windows@System@@$$FQ$AAMXVPoint@Drawing@5@@Z

; 147  : 				this->label5->Name = L"label5";

	ldarg.0				; _this$
	ldfld		?label5@Form1@Ejemplo2@@3P$AAVLabel@Forms@Windows@System@@$AA
	ldstr		$StringLiteralTok$??_C@_1O@MOEBAFHL@?$AAl?$AAa?$AAb?$AAe?$AAl?$AA5?$AA?$AA@
	call		?set@Name@Control@Forms@Windows@System@@$$FQ$AAMXP$AAVString@5@@Z

; 148  : 				this->label5->Size = System::Drawing::Size(233, 13);

	ldloca.s	4		; $T19
	ldc.i4		233		; i32 0xe9
	ldc.i4.s	13		; i32 0xd
	call		??0Size@Drawing@System@@$$FQ$CAM@HH@Z
	ldarg.0				; _this$
	ldfld		?label5@Form1@Ejemplo2@@3P$AAVLabel@Forms@Windows@System@@$AA
	ldloc.s		4		; $T19
	call		?set@Size@Control@Forms@Windows@System@@$$FQ$AAMXV1Drawing@5@@Z

; 149  : 				this->label5->TabIndex = 8;

	ldarg.0				; _this$
	ldfld		?label5@Form1@Ejemplo2@@3P$AAVLabel@Forms@Windows@System@@$AA
	ldc.i.8		8		; i32 0x8
	call		?set@TabIndex@Control@Forms@Windows@System@@$$FQ$AAMXH@Z

; 150  : 				this->label5->Text = L"DIVISIÓN ENTERA DE DOS NÚMEROS";

	ldarg.0				; _this$
	ldfld		?label5@Form1@Ejemplo2@@3P$AAVLabel@Forms@Windows@System@@$AA
	ldstr		$StringLiteralTok$??_C@_1DO@CCFGBNLA@?$AAD?$AAI?$AAV?$AAI?$AAS?$AAI?$AA?S?$AAN?$AA?5?$AAE?$AAN?$AAT?$AAE?$AAR?$AAA?$AA?5?$AAD?$AAE?$AA?5?$AAD?$AAO?$AAS?$AA?5?$AAN?$AA?Z?$AAM?$AAE?$AAR?$AAO?$AAS?$AA?$AA@
	callvirt	?set@Text@Label@Forms@Windows@System@@$$FU$AAMXP$AAVString@5@@Z

; 151  : 				// 
; 152  : 				// button1
; 153  : 				// 
; 154  : 				this->button1->Location = System::Drawing::Point(118, 113);

	ldloca.s	3		; $T20
	ldc.i4.s	118		; i32 0x76
	ldc.i4.s	113		; i32 0x71
	call		??0Point@Drawing@System@@$$FQ$CAM@HH@Z
	ldarg.0				; _this$
	ldfld		?button1@Form1@Ejemplo2@@3P$AAVButton@Forms@Windows@System@@$AA
	ldloc.3				; $T20
	call		?set@Location@Control@Forms@Windows@System@@$$FQ$AAMXVPoint@Drawing@5@@Z

; 155  : 				this->button1->Name = L"button1";

	ldarg.0				; _this$
	ldfld		?button1@Form1@Ejemplo2@@3P$AAVButton@Forms@Windows@System@@$AA
	ldstr		$StringLiteralTok$??_C@_1BA@GICFBNPG@?$AAb?$AAu?$AAt?$AAt?$AAo?$AAn?$AA1?$AA?$AA@
	call		?set@Name@Control@Forms@Windows@System@@$$FQ$AAMXP$AAVString@5@@Z

; 156  : 				this->button1->Size = System::Drawing::Size(75, 23);

	ldloca.s	2		; $T21
	ldc.i4.s	75		; i32 0x4b
	ldc.i4.s	23		; i32 0x17
	call		??0Size@Drawing@System@@$$FQ$CAM@HH@Z
	ldarg.0				; _this$
	ldfld		?button1@Form1@Ejemplo2@@3P$AAVButton@Forms@Windows@System@@$AA
	ldloc.2				; $T21
	call		?set@Size@Control@Forms@Windows@System@@$$FQ$AAMXV1Drawing@5@@Z

; 157  : 				this->button1->TabIndex = 9;

	ldarg.0				; _this$
	ldfld		?button1@Form1@Ejemplo2@@3P$AAVButton@Forms@Windows@System@@$AA
	ldc.i4.s	9		; i32 0x9
	call		?set@TabIndex@Control@Forms@Windows@System@@$$FQ$AAMXH@Z

; 158  : 				this->button1->Text = L"Calcular";

	ldarg.0				; _this$
	ldfld		?button1@Form1@Ejemplo2@@3P$AAVButton@Forms@Windows@System@@$AA
	ldstr		$StringLiteralTok$??_C@_1BC@DDJIGOJK@?$AAC?$AAa?$AAl?$AAc?$AAu?$AAl?$AAa?$AAr?$AA?$AA@
	callvirt	?set@Text@ButtonBase@Forms@Windows@System@@$$FU$AAMXP$AAVString@5@@Z

; 159  : 				this->button1->UseVisualStyleBackColor = true;

	ldarg.0				; _this$
	ldfld		?button1@Form1@Ejemplo2@@3P$AAVButton@Forms@Windows@System@@$AA
	ldc.i.1		1		; u8 0x1
	call		?set@UseVisualStyleBackColor@ButtonBase@Forms@Windows@System@@$$FQ$AAMX_N@Z

; 160  : 				this->button1->Click += gcnew System::EventHandler(this, &Form1::button1_Click);

	ldarg.0				; _this$
	ldfld		?button1@Form1@Ejemplo2@@3P$AAVButton@Forms@Windows@System@@$AA
	ldarg.0				; _this$
	ldftn		?button1_Click@Form1@Ejemplo2@@$$FA$AAMXP$AAVObject@System@@P$AAVEventArgs@4@@Z
	newobj		??0EventHandler@System@@$$FQ$AAM@P$AAVObject@1@VIntPtr@1@@Z
	call		?add@Click@Control@Forms@Windows@System@@$$FQ$AAMXP$AAVEventHandler@5@@Z

; 161  : 				// 
; 162  : 				// Form1
; 163  : 				// 
; 164  : 				this->AutoScaleDimensions = System::Drawing::SizeF(6, 13);

	ldloca.s	1		; $T22
	ldc.r4		6.000000
	ldc.r4		13.000000
	call		??0SizeF@Drawing@System@@$$FQ$CAM@MM@Z
	ldarg.0				; _this$
	ldloc.1				; $T22
	call		?set@AutoScaleDimensions@ContainerControl@Forms@Windows@System@@$$FQ$AAMXVSizeF@Drawing@5@@Z

; 165  : 				this->AutoScaleMode = System::Windows::Forms::AutoScaleMode::Font;

	ldarg.0				; _this$
	ldc.i.1		1		; i32 0x1
	call		?set@AutoScaleMode@ContainerControl@Forms@Windows@System@@$$FQ$AAMXW41345@@Z

; 166  : 				this->ClientSize = System::Drawing::Size(284, 261);

	ldloca.s	0		; $T23
	ldc.i4		284		; i32 0x11c
	ldc.i4		261		; i32 0x105
	call		??0Size@Drawing@System@@$$FQ$CAM@HH@Z
	ldarg.0				; _this$
	ldloc.0				; $T23
	call		?set@ClientSize@Form@Forms@Windows@System@@$$FQ$AAMXVSize@Drawing@5@@Z

; 167  : 				this->Controls->Add(this->button1);

	ldarg.0				; _this$
	call		?get@Controls@Control@Forms@Windows@System@@$$FQ$AAMP$AAVControlCollection@2345@XZ
	ldarg.0				; _this$
	ldfld		?button1@Form1@Ejemplo2@@3P$AAVButton@Forms@Windows@System@@$AA
	callvirt	?Add@ControlCollection@Control@Forms@Windows@System@@$$FU$AAMXP$AAV2345@@Z

; 168  : 				this->Controls->Add(this->label5);

	ldarg.0				; _this$
	call		?get@Controls@Control@Forms@Windows@System@@$$FQ$AAMP$AAVControlCollection@2345@XZ
	ldarg.0				; _this$
	ldfld		?label5@Form1@Ejemplo2@@3P$AAVLabel@Forms@Windows@System@@$AA
	callvirt	?Add@ControlCollection@Control@Forms@Windows@System@@$$FU$AAMXP$AAV2345@@Z

; 169  : 				this->Controls->Add(this->textBox4);

	ldarg.0				; _this$
	call		?get@Controls@Control@Forms@Windows@System@@$$FQ$AAMP$AAVControlCollection@2345@XZ
	ldarg.0				; _this$
	ldfld		?textBox4@Form1@Ejemplo2@@3P$AAVTextBox@Forms@Windows@System@@$AA
	callvirt	?Add@ControlCollection@Control@Forms@Windows@System@@$$FU$AAMXP$AAV2345@@Z

; 170  : 				this->Controls->Add(this->textBox3);

	ldarg.0				; _this$
	call		?get@Controls@Control@Forms@Windows@System@@$$FQ$AAMP$AAVControlCollection@2345@XZ
	ldarg.0				; _this$
	ldfld		?textBox3@Form1@Ejemplo2@@3P$AAVTextBox@Forms@Windows@System@@$AA
	callvirt	?Add@ControlCollection@Control@Forms@Windows@System@@$$FU$AAMXP$AAV2345@@Z

; 171  : 				this->Controls->Add(this->textBox2);

	ldarg.0				; _this$
	call		?get@Controls@Control@Forms@Windows@System@@$$FQ$AAMP$AAVControlCollection@2345@XZ
	ldarg.0				; _this$
	ldfld		?textBox2@Form1@Ejemplo2@@3P$AAVTextBox@Forms@Windows@System@@$AA
	callvirt	?Add@ControlCollection@Control@Forms@Windows@System@@$$FU$AAMXP$AAV2345@@Z

; 172  : 				this->Controls->Add(this->textBox1);

	ldarg.0				; _this$
	call		?get@Controls@Control@Forms@Windows@System@@$$FQ$AAMP$AAVControlCollection@2345@XZ
	ldarg.0				; _this$
	ldfld		?textBox1@Form1@Ejemplo2@@3P$AAVTextBox@Forms@Windows@System@@$AA
	callvirt	?Add@ControlCollection@Control@Forms@Windows@System@@$$FU$AAMXP$AAV2345@@Z

; 173  : 				this->Controls->Add(this->label4);

	ldarg.0				; _this$
	call		?get@Controls@Control@Forms@Windows@System@@$$FQ$AAMP$AAVControlCollection@2345@XZ
	ldarg.0				; _this$
	ldfld		?label4@Form1@Ejemplo2@@3P$AAVLabel@Forms@Windows@System@@$AA
	callvirt	?Add@ControlCollection@Control@Forms@Windows@System@@$$FU$AAMXP$AAV2345@@Z

; 174  : 				this->Controls->Add(this->label3);

	ldarg.0				; _this$
	call		?get@Controls@Control@Forms@Windows@System@@$$FQ$AAMP$AAVControlCollection@2345@XZ
	ldarg.0				; _this$
	ldfld		?label3@Form1@Ejemplo2@@3P$AAVLabel@Forms@Windows@System@@$AA
	callvirt	?Add@ControlCollection@Control@Forms@Windows@System@@$$FU$AAMXP$AAV2345@@Z

; 175  : 				this->Controls->Add(this->label2);

	ldarg.0				; _this$
	call		?get@Controls@Control@Forms@Windows@System@@$$FQ$AAMP$AAVControlCollection@2345@XZ
	ldarg.0				; _this$
	ldfld		?label2@Form1@Ejemplo2@@3P$AAVLabel@Forms@Windows@System@@$AA
	callvirt	?Add@ControlCollection@Control@Forms@Windows@System@@$$FU$AAMXP$AAV2345@@Z

; 176  : 				this->Controls->Add(this->label1);

	ldarg.0				; _this$
	call		?get@Controls@Control@Forms@Windows@System@@$$FQ$AAMP$AAVControlCollection@2345@XZ
	ldarg.0				; _this$
	ldfld		?label1@Form1@Ejemplo2@@3P$AAVLabel@Forms@Windows@System@@$AA
	callvirt	?Add@ControlCollection@Control@Forms@Windows@System@@$$FU$AAMXP$AAV2345@@Z

; 177  : 				this->Name = L"Form1";

	ldarg.0				; _this$
	ldstr		$StringLiteralTok$??_C@_1M@GJBAGBNA@?$AAF?$AAo?$AAr?$AAm?$AA1?$AA?$AA@
	call		?set@Name@Control@Forms@Windows@System@@$$FQ$AAMXP$AAVString@5@@Z

; 178  : 				this->Text = L"Form1";

	ldarg.0				; _this$
	ldstr		$StringLiteralTok$??_C@_1M@GJBAGBNA@?$AAF?$AAo?$AAr?$AAm?$AA1?$AA?$AA@
	callvirt	?set@Text@Form@Forms@Windows@System@@$$FU$AAMXP$AAVString@5@@Z

; 179  : 				this->ResumeLayout(false);

	ldarg.0				; _this$
	ldc.i.0		0		; u8 0x0
	call		?ResumeLayout@Control@Forms@Windows@System@@$$FQ$AAMX_N@Z

; 180  : 				this->PerformLayout();

	ldarg.0				; _this$
	call		?PerformLayout@Control@Forms@Windows@System@@$$FQ$AAMXXZ

; 181  : 
; 182  : 			}

	ret		
 .end ?InitializeComponent@Form1@Ejemplo2@@$$FA$AAMXXZ	; Ejemplo2::Form1::InitializeComponent
;	.proc.end.void
; Function compile flags: /Odtp
; File c:\users\eps\documents\visual studio 2017\projects\ejerciciosensamblador\ejemplo2\form1.h
	.text
	.comdat	any, ??0Form1@Ejemplo2@@$$FQ$AAM@XZ
.global	??0Form1@Ejemplo2@@$$FQ$AAM@XZ			; Ejemplo2::Form1::Form1
??0Form1@Ejemplo2@@$$FQ$AAM@XZ:				; Ejemplo2::Form1::Form1
;	.proc.def	D:V()

; Function Header:
; max stack depth = 2
; function size = 23 bytes
; local varsig tk = 0x0 
; Exception Information:
; 1 handlers, each consisting of filtered handlers

;	.formal.mptr 0,"_this$" SIG: Optional C Binding Modifier(token:0x15FCE79).class (token:0x15FCE7B)

;	.proc.beg

; 22   : 			{

	ldarg.0				; _this$
	call		??0Form@Forms@Windows@System@@$$FQ$AAM@XZ
$LN4@Form1:

; 23   : 				InitializeComponent();

	ldarg.0				; _this$
	call		?InitializeComponent@Form1@Ejemplo2@@$$FA$AAMXXZ
	leave.s		$LN5@Form1
$LN6@Form1:
	ldarg.0				; _this$
	ldc.i.1		1		; u8 0x1
	call		?<Dispose>@Form@Forms@Windows@System@@$$FM$AAMX_N@Z
	endfinally	
$LN5@Form1:

; 24   : 				//
; 25   : 				//TODO: agregar código de constructor aquí
; 26   : 				//
; 27   : 			}

	ret		
 .end ??0Form1@Ejemplo2@@$$FQ$AAM@XZ			; Ejemplo2::Form1::Form1
;	.proc.end.void
.global	
.global	
	.bss
.local	,4
.local	,4
.local	$T1,0
; Function compile flags: /Odtp
; File c:\users\eps\documents\visual studio 2017\projects\ejerciciosensamblador\ejemplo2\form1.cpp
	.text
.global	?Main@@$$FYMXP$01AP$AAVString@System@@@Z	; Main
?Main@@$$FYMXP$01AP$AAVString@System@@@Z:		; Main
;	.proc.def	D:V(P)

; Function Header:
; max stack depth = 1
; function size = 43 bytes
; local varsig tk = 0x1100000A 
; Exception Information:
; 1 handlers, each consisting of filtered handlers

;	.local.mptr 0,"_form$" SIG: class (token:0x15FD6E9)
;	.local.i4 1,"$T2" SIG: Optional C Binding Modifier(token:0x15FBC51).class (token:0x15FBC53)

;	.proc.beg

; 6    : {

	ldnull		0		; i32 0x0
	stloc.0				; _form$

; 7    : 	Application::EnableVisualStyles();

	call		?EnableVisualStyles@Application@Forms@Windows@System@@$$FSMXXZ

; 8    : 	Application::SetCompatibleTextRenderingDefault(false);

	ldc.i.0		0		; u8 0x0
	call		?SetCompatibleTextRenderingDefault@Application@Forms@Windows@System@@$$FSMX_N@Z

; 9    : 	Ejemplo2::Form1 form;

	newobj		??0Form1@Ejemplo2@@$$FQ$AAM@XZ
	stloc.1				; $T2
$LN4@Main:
	ldloc.1				; $T2
	stloc.0				; _form$

; 10   : 	Application::Run(%form);

	ldloc.0				; _form$
	call		?Run@Application@Forms@Windows@System@@$$FSMXP$AAVForm@234@@Z
	leave.s		$LN5@Main
$LN6@Main:
	ldloc.0				; _form$
	callvirt	?<Dispose>@IDisposable@System@@$$FU$AAMXXZ
	endfinally	
$LN5@Main:

; 11   : }

	ldloc.0				; _form$
	callvirt	?<Dispose>@IDisposable@System@@$$FU$AAMXXZ
	ret		
 .end ?Main@@$$FYMXP$01AP$AAVString@System@@@Z		; Main
;	.proc.end.void
PUBLIC	?Main@@YMXP$01AP$AAVString@System@@@Z		; Main
PUBLIC	__mep@?Main@@$$FYMXP$01AP$AAVString@System@@@Z
;	COMDAT __mep@?Main@@$$FYMXP$01AP$AAVString@System@@@Z
data	SEGMENT
__mep@?Main@@$$FYMXP$01AP$AAVString@System@@@Z TOKEN 06000006
data	ENDS
; Function compile flags: /Ods
;	COMDAT ?Main@@YMXP$01AP$AAVString@System@@@Z
_TEXT	SEGMENT
?Main@@YMXP$01AP$AAVString@System@@@Z PROC		; Main, COMDAT
	jmp	DWORD PTR __mep@?Main@@$$FYMXP$01AP$AAVString@System@@@Z
?Main@@YMXP$01AP$AAVString@System@@@Z ENDP		; Main
_TEXT	ENDS
